target datalayout = "e-m:e-p270:32:32-p271:32:32-p272:64:64-i64:64-i128:128-f80:128-n8:16:32:64-S128"
target triple = "x86_64-pc-linux-gnu"

%"class.icu_77::MaybeStackArray" = type <{ ptr, i32, i8, [40 x i8], [3 x i8] }>
%"class.icu_77::CharString" = type { %"class.icu_77::MaybeStackArray", i32, [4 x i8] }

; Function Attrs: mustprogress nounwind uwtable
define weak_odr noundef nonnull align 1 dereferenceable(1) ptr @_ZN6icu_7715MaybeStackArrayIcLi40EEixEl(ptr noundef nonnull align 8 dereferenceable(53) %0, i64 noundef %1) #0 comdat align 2 {
  %3 = alloca ptr, align 8
  %4 = alloca i64, align 8
  store ptr %0, ptr %3, align 8, !tbaa !3
  store i64 %1, ptr %4, align 8, !tbaa !18
  %5 = load ptr, ptr %3, align 8
  %6 = getelementptr inbounds nuw %"class.icu_77::MaybeStackArray", ptr %5, i32 0, i32 0
  %7 = load ptr, ptr %6, align 8, !tbaa !8
  %8 = load i64, ptr %4, align 8, !tbaa !18
  %9 = getelementptr inbounds i8, ptr %7, i64 %8
  ret ptr %9
}

; Function Attrs: mustprogress nounwind uwtable
define noundef nonnull align 8 dereferenceable(60) ptr @_ZN6icu_7710CharString8truncateEi(ptr noundef nonnull align 8 dereferenceable(60) %0, i32 noundef %1) #0 align 2 {
  %3 = alloca ptr, align 8
  %4 = alloca i32, align 4
  store ptr %0, ptr %3, align 8, !tbaa !23
  store i32 %1, ptr %4, align 4, !tbaa !14
  %5 = load ptr, ptr %3, align 8
  %6 = load i32, ptr %4, align 4, !tbaa !14
  %7 = icmp slt i32 %6, 0
  br i1 %7, label %8, label %9

8:                                                ; preds = %2
  store i32 0, ptr %4, align 4, !tbaa !14
  br label %9

9:                                                ; preds = %8, %2
  %10 = load i32, ptr %4, align 4, !tbaa !14
  %11 = getelementptr inbounds nuw %"class.icu_77::CharString", ptr %5, i32 0, i32 1
  %12 = load i32, ptr %11, align 8, !tbaa !25
  %13 = icmp slt i32 %10, %12
  br i1 %13, label %14, label %20

14:                                               ; preds = %9
  %15 = getelementptr inbounds nuw %"class.icu_77::CharString", ptr %5, i32 0, i32 0
  %16 = load i32, ptr %4, align 4, !tbaa !14
  %17 = getelementptr inbounds nuw %"class.icu_77::CharString", ptr %5, i32 0, i32 1
  store i32 %16, ptr %17, align 8, !tbaa !25
  %18 = sext i32 %16 to i64
  %19 = call noundef nonnull align 1 dereferenceable(1) ptr @_ZN6icu_7715MaybeStackArrayIcLi40EEixEl(ptr noundef nonnull align 8 dereferenceable(53) %15, i64 noundef %18)
  store i8 0, ptr %19, align 1, !tbaa !27
  br label %20

20:                                               ; preds = %14, %9
  ret ptr %5
}