; Function Attrs: mustprogress nofree norecurse nosync nounwind willreturn memory(write, argmem: readwrite, inaccessiblemem: none) uwtable
define noundef nonnull align 8 dereferenceable(60) ptr @_ZN6icu_7710CharString8truncateEi(ptr noundef nonnull returned align 8 dereferenceable(60) %0, i32 noundef %1) local_unnamed_addr #12 align 2 {
  %spec.store.select = tail call i32 @llvm.smax.i32(i32 %1, i32 0)
  %3 = getelementptr inbounds nuw i8, ptr %0, i64 56
  %4 = load i32, ptr %3, align 8, !tbaa !15
  %5 = icmp slt i32 %spec.store.select, %4
  br i1 %5, label %6, label %10

6:                                                ; preds = %2
  store i32 %spec.store.select, ptr %3, align 8, !tbaa !15
  %7 = zext nneg i32 %spec.store.select to i64
  %8 = load ptr, ptr %0, align 8, !tbaa !3
  %9 = getelementptr inbounds nuw i8, ptr %8, i64 %7
  store i8 0, ptr %9, align 1, !tbaa !17
  br label %10

10:                                               ; preds = %6, %2
  ret ptr %0
}